target datalayout = "e-m:e-p270:32:32-p271:32:32-p272:64:64-i64:64-i128:128-f80:128-n8:16:32:64-S128"
target triple = "x86_64-pc-linux-gnu"

%struct._zval_struct = type { %union._zend_value, %union.anon.0, %union.anon.3 }
%union._zend_value = type { i64 }
%union.anon.0 = type { i32 }
%union.anon.3 = type { i32 }
%struct._xmlNode = type { ptr, i32, ptr, ptr, ptr, ptr, ptr, ptr, ptr, ptr, ptr, ptr, ptr, ptr, i16, i16 }

; Function Attrs: nounwind uwtable
define hidden i32 @dom_node_first_child_read(ptr noundef %0, ptr noundef %1) #0 {
  %3 = alloca i32, align 4
  %4 = alloca ptr, align 8
  %5 = alloca ptr, align 8
  %6 = alloca ptr, align 8
  %7 = alloca ptr, align 8
  store ptr %0, ptr %4, align 8
  store ptr %1, ptr %5, align 8
  store ptr null, ptr %7, align 8
  %8 = load ptr, ptr %4, align 8
  %9 = call ptr @dom_object_get_node(ptr noundef %8)
  store ptr %9, ptr %6, align 8
  %10 = load ptr, ptr %6, align 8
  %11 = icmp eq ptr %10, null
  br i1 %11, label %12, label %13

12:                                               ; preds = %2
  call void @php_dom_throw_error(i32 noundef 11, i32 noundef 1)
  store i32 -1, ptr %3, align 4
  br label %34

13:                                               ; preds = %2
  %14 = load ptr, ptr %6, align 8
  %15 = call i32 @dom_node_children_valid(ptr noundef %14)
  %16 = icmp eq i32 %15, 0
  br i1 %16, label %17, label %21

17:                                               ; preds = %13
  %18 = load ptr, ptr %6, align 8
  %19 = getelementptr inbounds %struct._xmlNode, ptr %18, i32 0, i32 3
  %20 = load ptr, ptr %19, align 8
  store ptr %20, ptr %7, align 8
  br label %21

21:                                               ; preds = %17, %13
  %22 = load ptr, ptr %7, align 8
  %23 = icmp ne ptr %22, null
  br i1 %23, label %29, label %24

24:                                               ; preds = %21
  br label %25

25:                                               ; preds = %24
  %26 = load ptr, ptr %5, align 8
  %27 = getelementptr inbounds %struct._zval_struct, ptr %26, i32 0, i32 1
  store i32 1, ptr %27, align 8
  br label %28

28:                                               ; preds = %25
  store i32 0, ptr %3, align 4
  br label %34

29:                                               ; preds = %21
  %30 = load ptr, ptr %7, align 8
  %31 = load ptr, ptr %5, align 8
  %32 = load ptr, ptr %4, align 8
  %33 = call zeroext i1 @php_dom_create_object(ptr noundef %30, ptr noundef %31, ptr noundef %32)
  store i32 0, ptr %3, align 4
  br label %34

34:                                               ; preds = %29, %28, %12
  %35 = load i32, ptr %3, align 4
  ret i32 %35
}